target datalayout = "e-m:e-p270:32:32-p271:32:32-p272:64:64-i64:64-i128:128-f80:128-n8:16:32:64-S128"
target triple = "x86_64-pc-linux-gnu"

%struct._address = type { i32, i32, ptr, ptr }
%struct.except_id_t = type { i64, i64 }
%struct._packet_info = type { ptr, ptr, i32, i32, %struct.nstime_t, %struct.nstime_t, %struct.nstime_t, i8, ptr, ptr, ptr, ptr, %struct._address, %struct._address, %struct._address, %struct._address, %struct._address, %struct._address, i32, ptr, i8, [3 x i8], %struct.anon, i32, i32, i32, i32, ptr, i8, ptr, ptr, i16, i16, i32, i32, i16, i32, i32, ptr, ptr, ptr, i8, i8, i16, i16, i16, i32, i16, i16, ptr, ptr, ptr, ptr, ptr, i32, i32 }
%struct.nstime_t = type { i64, i32 }
%struct.anon = type { i8, [3 x i8] }
%struct.except_stacknode = type { ptr, i32, %union.anon.1 }
%union.anon.1 = type { ptr }
%struct.except_catch = type { ptr, i64, %struct.except_t, [1 x %struct.__jmp_buf_tag] }
%struct.except_t = type { %struct.except_id_t, ptr, ptr }
%struct.__jmp_buf_tag = type { [8 x i64], i32, %struct.__sigset_t }
%struct.__sigset_t = type { [16 x i64] }

@call_message_dissector.catch_spec = internal constant [1 x %struct.except_id_t] [%struct.except_id_t { i64 1, i64 0 }], align 16

; Function Attrs: null_pointer_is_valid sspstrong uwtable
define internal zeroext i1 @call_message_dissector(ptr noundef %0, ptr noundef %1, ptr noundef %2, ptr noundef %3, ptr noundef %4, ptr noundef %5, ptr noundef %6, i32 noundef %7, i32 noundef %8, i1 noundef zeroext %9, i1 noundef zeroext %10) #0 {
  %12 = alloca ptr, align 8
  %13 = alloca ptr, align 8
  %14 = alloca ptr, align 8
  %15 = alloca ptr, align 8
  %16 = alloca ptr, align 8
  %17 = alloca ptr, align 8
  %18 = alloca ptr, align 8
  %19 = alloca i32, align 4
  %20 = alloca i32, align 4
  %21 = alloca i8, align 1
  %22 = alloca i8, align 1
  %23 = alloca ptr, align 8
  %24 = alloca i8, align 1
  %25 = alloca ptr, align 8
  %26 = alloca i32, align 4
  %27 = alloca %struct.except_stacknode, align 8
  %28 = alloca %struct.except_catch, align 8
  store ptr %0, ptr %12, align 8
  store ptr %1, ptr %13, align 8
  store ptr %2, ptr %14, align 8
  store ptr %3, ptr %15, align 8
  store ptr %4, ptr %16, align 8
  store ptr %5, ptr %17, align 8
  store ptr %6, ptr %18, align 8
  store i32 %7, ptr %19, align 4
  store i32 %8, ptr %20, align 4
  %29 = zext i1 %9 to i8
  store i8 %29, ptr %21, align 1
  %30 = zext i1 %10 to i8
  store i8 %30, ptr %22, align 1
  call void @llvm.lifetime.start.p0(i64 8, ptr %23) #18
  call void @llvm.lifetime.start.p0(i64 1, ptr %24) #18
  %31 = load ptr, ptr %14, align 8
  %32 = getelementptr inbounds nuw %struct._packet_info, ptr %31, i32 0, i32 0
  %33 = load ptr, ptr %32, align 8
  store ptr %33, ptr %23, align 8
  store volatile i8 0, ptr %24, align 1
  call void @llvm.lifetime.start.p0(i64 8, ptr %25) #18
  call void @llvm.lifetime.start.p0(i64 4, ptr %26) #18
  store volatile i32 0, ptr %26, align 4
  call void @llvm.lifetime.start.p0(i64 24, ptr %27) #18
  call void @llvm.lifetime.start.p0(i64 248, ptr %28) #18
  call void @except_setup_try(ptr noundef %27, ptr noundef %28, ptr noundef @call_message_dissector.catch_spec, i64 noundef 1)
  %34 = getelementptr inbounds nuw %struct.except_catch, ptr %28, i32 0, i32 3
  %35 = getelementptr inbounds [1 x %struct.__jmp_buf_tag], ptr %34, i64 0, i64 0
  %36 = call i32 @_setjmp(ptr noundef %35) #24
  %37 = icmp ne i32 %36, 0
  br i1 %37, label %38, label %40

38:                                               ; preds = %11
  %39 = getelementptr inbounds nuw %struct.except_catch, ptr %28, i32 0, i32 2
  store volatile ptr %39, ptr %25, align 8
  br label %41

40:                                               ; preds = %11
  store volatile ptr null, ptr %25, align 8
  br label %41

41:                                               ; preds = %40, %38
  %42 = load volatile i32, ptr %26, align 4
  %43 = and i32 %42, 1
  %44 = icmp ne i32 %43, 0
  br i1 %44, label %45, label %48

45:                                               ; preds = %41
  %46 = load volatile i32, ptr %26, align 4
  %47 = or i32 %46, 2
  store volatile i32 %47, ptr %26, align 4
  br label %48

48:                                               ; preds = %45, %41
  %49 = load volatile i32, ptr %26, align 4
  %50 = and i32 %49, -2
  store volatile i32 %50, ptr %26, align 4
  %51 = load volatile i32, ptr %26, align 4
  %52 = icmp eq i32 %51, 0
  br i1 %52, label %53, label %71

53:                                               ; preds = %48
  %54 = load volatile ptr, ptr %25, align 8
  %55 = icmp eq ptr %54, null
  br i1 %55, label %56, label %71

56:                                               ; preds = %53
  %57 = load ptr, ptr %17, align 8
  %58 = load ptr, ptr %13, align 8
  %59 = load ptr, ptr %14, align 8
  %60 = load ptr, ptr %15, align 8
  %61 = load ptr, ptr %16, align 8
  %62 = load ptr, ptr %18, align 8
  %63 = load i32, ptr %19, align 4
  %64 = load i32, ptr %20, align 4
  %65 = load i8, ptr %21, align 1, !range !6, !noundef !7
  %66 = trunc i8 %65 to i1
  %67 = load i8, ptr %22, align 1, !range !6, !noundef !7
  %68 = trunc i8 %67 to i1
  %69 = call zeroext i1 %57(ptr noundef %58, ptr noundef %59, ptr noundef %60, ptr noundef %61, ptr noundef %62, i32 noundef %63, i32 noundef %64, i1 noundef zeroext %66, i1 noundef zeroext %68)
  %70 = zext i1 %69 to i8
  store volatile i8 %70, ptr %24, align 1
  br label %71

71:                                               ; preds = %56, %53, %48
  %72 = load volatile i32, ptr %26, align 4
  %73 = icmp eq i32 %72, 0
  br i1 %73, label %74, label %119

74:                                               ; preds = %71
  %75 = load volatile ptr, ptr %25, align 8
  %76 = icmp ne ptr %75, null
  br i1 %76, label %77, label %119

77:                                               ; preds = %74
  %78 = load volatile ptr, ptr %25, align 8
  %79 = getelementptr inbounds nuw %struct.except_t, ptr %78, i32 0, i32 0
  %80 = getelementptr inbounds nuw %struct.except_id_t, ptr %79, i32 0, i32 1
  %81 = load volatile i64, ptr %80, align 8
  %82 = icmp eq i64 %81, 3
  br i1 %82, label %101, label %83

83:                                               ; preds = %77
  %84 = load volatile ptr, ptr %25, align 8
  %85 = getelementptr inbounds nuw %struct.except_t, ptr %84, i32 0, i32 0
  %86 = getelementptr inbounds nuw %struct.except_id_t, ptr %85, i32 0, i32 1
  %87 = load volatile i64, ptr %86, align 8
  %88 = icmp eq i64 %87, 2
  br i1 %88, label %101, label %89

89:                                               ; preds = %83
  %90 = load volatile ptr, ptr %25, align 8
  %91 = getelementptr inbounds nuw %struct.except_t, ptr %90, i32 0, i32 0
  %92 = getelementptr inbounds nuw %struct.except_id_t, ptr %91, i32 0, i32 1
  %93 = load volatile i64, ptr %92, align 8
  %94 = icmp eq i64 %93, 7
  br i1 %94, label %101, label %95

95:                                               ; preds = %89
  %96 = load volatile ptr, ptr %25, align 8
  %97 = getelementptr inbounds nuw %struct.except_t, ptr %96, i32 0, i32 0
  %98 = getelementptr inbounds nuw %struct.except_id_t, ptr %97, i32 0, i32 1
  %99 = load volatile i64, ptr %98, align 8
  %100 = icmp eq i64 %99, 9
  br i1 %100, label %101, label %119

101:                                              ; preds = %95, %89, %83, %77
  %102 = load volatile i32, ptr %26, align 4
  %103 = or i32 %102, 1
  store volatile i32 %103, ptr %26, align 4
  %104 = icmp ne i32 %103, 0
  br i1 %104, label %105, label %119

105:                                              ; preds = %101
  %106 = load ptr, ptr %12, align 8
  %107 = load ptr, ptr %14, align 8
  %108 = load ptr, ptr %15, align 8
  %109 = load volatile ptr, ptr %25, align 8
  %110 = getelementptr inbounds nuw %struct.except_t, ptr %109, i32 0, i32 0
  %111 = getelementptr inbounds nuw %struct.except_id_t, ptr %110, i32 0, i32 1
  %112 = load volatile i64, ptr %111, align 8
  %113 = load volatile ptr, ptr %25, align 8
  %114 = getelementptr inbounds nuw %struct.except_t, ptr %113, i32 0, i32 1
  %115 = load volatile ptr, ptr %114, align 8
  call void @show_exception(ptr noundef %106, ptr noundef %107, ptr noundef %108, i64 noundef %112, ptr noundef %115)
  %116 = load ptr, ptr %23, align 8
  %117 = load ptr, ptr %14, align 8
  %118 = getelementptr inbounds nuw %struct._packet_info, ptr %117, i32 0, i32 0
  store ptr %116, ptr %118, align 8
  store volatile i8 1, ptr %24, align 1
  br label %119

119:                                              ; preds = %105, %101, %95, %74, %71
  %120 = load volatile i32, ptr %26, align 4
  %121 = and i32 %120, 1
  %122 = icmp ne i32 %121, 0
  br i1 %122, label %128, label %123

123:                                              ; preds = %119
  %124 = load volatile ptr, ptr %25, align 8
  %125 = icmp ne ptr %124, null
  br i1 %125, label %126, label %128

126:                                              ; preds = %123
  %127 = load volatile ptr, ptr %25, align 8
  call void @except_rethrow(ptr noundef %127) #21
  unreachable

128:                                              ; preds = %123, %119
  %129 = getelementptr inbounds nuw %struct.except_catch, ptr %28, i32 0, i32 2
  %130 = getelementptr inbounds nuw %struct.except_t, ptr %129, i32 0, i32 2
  %131 = load volatile ptr, ptr %130, align 8
  call void @except_free(ptr noundef %131)
  %132 = call ptr @except_pop()
  call void @llvm.lifetime.end.p0(i64 248, ptr %28) #18
  call void @llvm.lifetime.end.p0(i64 24, ptr %27) #18
  call void @llvm.lifetime.end.p0(i64 4, ptr %26) #18
  call void @llvm.lifetime.end.p0(i64 8, ptr %25) #18
  %133 = load volatile i8, ptr %24, align 1, !range !6, !noundef !7
  %134 = trunc i8 %133 to i1
  call void @llvm.lifetime.end.p0(i64 1, ptr %24) #18
  call void @llvm.lifetime.end.p0(i64 8, ptr %23) #18
  ret i1 %134
}