; Function Attrs: null_pointer_is_valid sspstrong uwtable
define internal fastcc zeroext i1 @call_message_dissector(ptr noundef %0, ptr noundef %1, ptr noundef nonnull %2, ptr noundef %3, ptr noundef %4, ptr noundef %5, i32 noundef range(i32 1, 3) %6, i32 noundef %7, i1 noundef zeroext %8, i1 noundef zeroext %9) unnamed_addr #0 {
  %11 = alloca i8, align 1
  %12 = alloca ptr, align 8
  %13 = alloca i32, align 4
  %14 = alloca %struct.except_stacknode, align 8
  %15 = alloca %struct.except_catch, align 8
  call void @llvm.lifetime.start.p0(i64 1, ptr nonnull %11)
  %16 = load ptr, ptr %2, align 8
  store volatile i8 0, ptr %11, align 1
  call void @llvm.lifetime.start.p0(i64 8, ptr nonnull %12)
  call void @llvm.lifetime.start.p0(i64 4, ptr nonnull %13)
  store volatile i32 0, ptr %13, align 4
  call void @llvm.lifetime.start.p0(i64 24, ptr nonnull %14) #17
  call void @llvm.lifetime.start.p0(i64 248, ptr nonnull %15) #17
  call void @except_setup_try(ptr noundef nonnull %14, ptr noundef nonnull %15, ptr noundef nonnull @call_message_dissector.catch_spec, i64 noundef 1)
  %17 = getelementptr inbounds nuw i8, ptr %15, i64 48
  %18 = call i32 @_setjmp(ptr noundef nonnull %17) #22
  %.not = icmp eq i32 %18, 0
  %19 = getelementptr inbounds nuw i8, ptr %15, i64 16
  %.sink = select i1 %.not, ptr null, ptr %19
  store volatile ptr %.sink, ptr %12, align 8
  %.0..0..0..0. = load volatile i32, ptr %13, align 4
  %20 = and i32 %.0..0..0..0., 1
  %.not33 = icmp eq i32 %20, 0
  br i1 %.not33, label %23, label %21

21:                                               ; preds = %10
  %.0..0..0..0.1 = load volatile i32, ptr %13, align 4
  %22 = or i32 %.0..0..0..0.1, 2
  store volatile i32 %22, ptr %13, align 4
  br label %23

23:                                               ; preds = %21, %10
  %.0..0..0..0.2 = load volatile i32, ptr %13, align 4
  %24 = and i32 %.0..0..0..0.2, -2
  store volatile i32 %24, ptr %13, align 4
  %.0..0..0..0.3 = load volatile i32, ptr %13, align 4
  %25 = icmp eq i32 %.0..0..0..0.3, 0
  br i1 %25, label %26, label %31

26:                                               ; preds = %23
  %.0..0..0..0.7 = load volatile ptr, ptr %12, align 8
  %27 = icmp eq ptr %.0..0..0..0.7, null
  br i1 %27, label %28, label %31

28:                                               ; preds = %26
  %29 = call fastcc zeroext i1 @dissect_rpc_message(ptr noundef %1, ptr noundef nonnull %2, ptr noundef %3, ptr noundef %4, ptr noundef %5, i32 noundef %6, i32 noundef %7, i1 noundef zeroext %8, i1 noundef zeroext %9)
  %30 = zext i1 %29 to i8
  store volatile i8 %30, ptr %11, align 1
  br label %31

31:                                               ; preds = %28, %26, %23
  %.0..0..0..0.4 = load volatile i32, ptr %13, align 4
  %32 = icmp eq i32 %.0..0..0..0.4, 0
  br i1 %32, label %33, label %56

33:                                               ; preds = %31
  %.0..0..0..0.8 = load volatile ptr, ptr %12, align 8
  %.not34 = icmp eq ptr %.0..0..0..0.8, null
  br i1 %.not34, label %56, label %34

34:                                               ; preds = %33
  %.0..0..0..0.9 = load volatile ptr, ptr %12, align 8
  %35 = getelementptr inbounds nuw i8, ptr %.0..0..0..0.9, i64 8
  %36 = load volatile i64, ptr %35, align 8
  %37 = icmp eq i64 %36, 3
  br i1 %37, label %50, label %38

38:                                               ; preds = %34
  %.0..0..0..0.10 = load volatile ptr, ptr %12, align 8
  %39 = getelementptr inbounds nuw i8, ptr %.0..0..0..0.10, i64 8
  %40 = load volatile i64, ptr %39, align 8
  %41 = icmp eq i64 %40, 2
  br i1 %41, label %50, label %42

42:                                               ; preds = %38
  %.0..0..0..0.11 = load volatile ptr, ptr %12, align 8
  %43 = getelementptr inbounds nuw i8, ptr %.0..0..0..0.11, i64 8
  %44 = load volatile i64, ptr %43, align 8
  %45 = icmp eq i64 %44, 7
  br i1 %45, label %50, label %46

46:                                               ; preds = %42
  %.0..0..0..0.12 = load volatile ptr, ptr %12, align 8
  %47 = getelementptr inbounds nuw i8, ptr %.0..0..0..0.12, i64 8
  %48 = load volatile i64, ptr %47, align 8
  %49 = icmp eq i64 %48, 9
  br i1 %49, label %50, label %56

50:                                               ; preds = %46, %42, %38, %34
  %.0..0..0..0.5 = load volatile i32, ptr %13, align 4
  %51 = or i32 %.0..0..0..0.5, 1
  store volatile i32 %51, ptr %13, align 4
  %.0..0..0..0.13 = load volatile ptr, ptr %12, align 8
  %52 = getelementptr inbounds nuw i8, ptr %.0..0..0..0.13, i64 8
  %53 = load volatile i64, ptr %52, align 8
  %.0..0..0..0.14 = load volatile ptr, ptr %12, align 8
  %54 = getelementptr inbounds nuw i8, ptr %.0..0..0..0.14, i64 16
  %55 = load volatile ptr, ptr %54, align 8
  call void @show_exception(ptr noundef %0, ptr noundef nonnull %2, ptr noundef %3, i64 noundef %53, ptr noundef %55)
  store ptr %16, ptr %2, align 8
  store volatile i8 1, ptr %11, align 1
  br label %56

56:                                               ; preds = %50, %46, %33, %31
  %.0..0..0..0.6 = load volatile i32, ptr %13, align 4
  %57 = and i32 %.0..0..0..0.6, 1
  %.not35 = icmp eq i32 %57, 0
  br i1 %.not35, label %58, label %60

58:                                               ; preds = %56
  %.0..0..0..0.15 = load volatile ptr, ptr %12, align 8
  %.not36 = icmp eq ptr %.0..0..0..0.15, null
  br i1 %.not36, label %60, label %59

59:                                               ; preds = %58
  %.0..0..0..0.16 = load volatile ptr, ptr %12, align 8
  call void @except_rethrow(ptr noundef %.0..0..0..0.16) #19
  unreachable

60:                                               ; preds = %58, %56
  %61 = getelementptr inbounds nuw i8, ptr %15, i64 40
  %62 = load volatile ptr, ptr %61, align 8
  call void @except_free(ptr noundef %62)
  %63 = call ptr @except_pop()
  call void @llvm.lifetime.end.p0(i64 248, ptr nonnull %15) #17
  call void @llvm.lifetime.end.p0(i64 24, ptr nonnull %14) #17
  call void @llvm.lifetime.end.p0(i64 4, ptr nonnull %13)
  call void @llvm.lifetime.end.p0(i64 8, ptr nonnull %12)
  %.0..0..0..0.17 = load volatile i8, ptr %11, align 1, !range !6, !noundef !7
  %64 = trunc nuw i8 %.0..0..0..0.17 to i1
  call void @llvm.lifetime.end.p0(i64 1, ptr nonnull %11)
  ret i1 %64
}